; ModuleID = '21/283.c'
source_filename = "21/283.c"
target datalayout = "e-m:e-p270:32:32-p271:32:32-p272:64:64-i64:64-f80:128-n8:16:32:64-S128"
target triple = "x86_64-pc-linux-gnu"

@.str = private unnamed_addr constant [3 x i8] c"%d\00", align 1
@.str.1 = private unnamed_addr constant [4 x i8] c",%d\00", align 1

; Function Attrs: noinline nounwind uwtable
define dso_local void @main() #0 {
  %1 = alloca [300 x i32], align 16
  %2 = alloca [300 x i32], align 16
  %3 = alloca i32, align 4
  %4 = alloca i32, align 4
  %5 = alloca i32, align 4
  %6 = alloca i32, align 4
  %7 = alloca float, align 4
  %8 = alloca float, align 4
  %9 = alloca float, align 4
  store i32 0, i32* %5, align 4
  store float 0.000000e+00, float* %8, align 4
  %10 = call i32 (i8*, ...) @__isoc99_scanf(i8* getelementptr inbounds ([3 x i8], [3 x i8]* @.str, i64 0, i64 0), i32* %3)
  store i32 0, i32* %4, align 4
  br label %11

11:                                               ; preds = %27, %0
  %12 = load i32, i32* %4, align 4
  %13 = load i32, i32* %3, align 4
  %14 = icmp slt i32 %12, %13
  br i1 %14, label %15, label %30

15:                                               ; preds = %11
  %16 = load i32, i32* %4, align 4
  %17 = sext i32 %16 to i64
  %18 = getelementptr inbounds [300 x i32], [300 x i32]* %1, i64 0, i64 %17
  %19 = call i32 (i8*, ...) @__isoc99_scanf(i8* getelementptr inbounds ([3 x i8], [3 x i8]* @.str, i64 0, i64 0), i32* %18)
  %20 = load float, float* %8, align 4
  %21 = load i32, i32* %4, align 4
  %22 = sext i32 %21 to i64
  %23 = getelementptr inbounds [300 x i32], [300 x i32]* %1, i64 0, i64 %22
  %24 = load i32, i32* %23, align 4
  %25 = sitofp i32 %24 to float
  %26 = fadd float %20, %25
  store float %26, float* %8, align 4
  br label %27

27:                                               ; preds = %15
  %28 = load i32, i32* %4, align 4
  %29 = add nsw i32 %28, 1
  store i32 %29, i32* %4, align 4
  br label %11

30:                                               ; preds = %11
  %31 = load float, float* %8, align 4
  %32 = load i32, i32* %3, align 4
  %33 = sitofp i32 %32 to float
  %34 = fdiv float %31, %33
  store float %34, float* %7, align 4
  %35 = getelementptr inbounds [300 x i32], [300 x i32]* %1, i64 0, i64 0
  %36 = load i32, i32* %35, align 16
  %37 = sitofp i32 %36 to float
  %38 = load float, float* %7, align 4
  %39 = fsub float %37, %38
  %40 = fpext float %39 to double
  %41 = call double @llvm.fabs.f64(double %40)
  %42 = fptrunc double %41 to float
  store float %42, float* %9, align 4
  %43 = getelementptr inbounds [300 x i32], [300 x i32]* %1, i64 0, i64 0
  %44 = load i32, i32* %43, align 16
  %45 = getelementptr inbounds [300 x i32], [300 x i32]* %2, i64 0, i64 0
  store i32 %44, i32* %45, align 16
  store i32 1, i32* %4, align 4
  br label %46

46:                                               ; preds = %84, %30
  %47 = load i32, i32* %4, align 4
  %48 = load i32, i32* %3, align 4
  %49 = icmp slt i32 %47, %48
  br i1 %49, label %50, label %87

50:                                               ; preds = %46
  %51 = load i32, i32* %4, align 4
  %52 = sext i32 %51 to i64
  %53 = getelementptr inbounds [300 x i32], [300 x i32]* %1, i64 0, i64 %52
  %54 = load i32, i32* %53, align 4
  %55 = sitofp i32 %54 to float
  %56 = load float, float* %7, align 4
  %57 = fsub float %55, %56
  %58 = fpext float %57 to double
  %59 = call double @llvm.fabs.f64(double %58)
  %60 = load float, float* %9, align 4
  %61 = fpext float %60 to double
  %62 = fcmp ogt double %59, %61
  br i1 %62, label %63, label %83

63:                                               ; preds = %50
  %64 = load i32, i32* %4, align 4
  %65 = sext i32 %64 to i64
  %66 = getelementptr inbounds [300 x i32], [300 x i32]* %1, i64 0, i64 %65
  %67 = load i32, i32* %66, align 4
  %68 = sitofp i32 %67 to float
  %69 = load float, float* %7, align 4
  %70 = fsub float %68, %69
  %71 = fpext float %70 to double
  %72 = call double @llvm.fabs.f64(double %71)
  %73 = fptrunc double %72 to float
  store float %73, float* %9, align 4
  %74 = load i32, i32* %4, align 4
  %75 = sext i32 %74 to i64
  %76 = getelementptr inbounds [300 x i32], [300 x i32]* %1, i64 0, i64 %75
  %77 = load i32, i32* %76, align 4
  %78 = getelementptr inbounds [300 x i32], [300 x i32]* %2, i64 0, i64 0
  store i32 %77, i32* %78, align 16
  %79 = load i32, i32* %4, align 4
  %80 = sext i32 %79 to i64
  %81 = getelementptr inbounds [300 x i32], [300 x i32]* %1, i64 0, i64 %80
  %82 = load i32, i32* %81, align 4
  store i32 %82, i32* %6, align 4
  br label %83

83:                                               ; preds = %63, %50
  br label %84

84:                                               ; preds = %83
  %85 = load i32, i32* %4, align 4
  %86 = add nsw i32 %85, 1
  store i32 %86, i32* %4, align 4
  br label %46

87:                                               ; preds = %46
  store i32 1, i32* %4, align 4
  br label %88

88:                                               ; preds = %125, %87
  %89 = load i32, i32* %4, align 4
  %90 = load i32, i32* %3, align 4
  %91 = icmp slt i32 %89, %90
  br i1 %91, label %92, label %128

92:                                               ; preds = %88
  %93 = load i32, i32* %4, align 4
  %94 = sext i32 %93 to i64
  %95 = getelementptr inbounds [300 x i32], [300 x i32]* %1, i64 0, i64 %94
  %96 = load i32, i32* %95, align 4
  %97 = sitofp i32 %96 to float
  %98 = load float, float* %7, align 4
  %99 = fsub float %97, %98
  %100 = fpext float %99 to double
  %101 = call double @llvm.fabs.f64(double %100)
  %102 = load float, float* %9, align 4
  %103 = fpext float %102 to double
  %104 = fsub double %101, %103
  %105 = call double @llvm.fabs.f64(double %104)
  %106 = fcmp olt double %105, 0x3EB0C6F7A0B5ED8D
  br i1 %106, label %107, label %124

107:                                              ; preds = %92
  %108 = load i32, i32* %6, align 4
  %109 = load i32, i32* %4, align 4
  %110 = sext i32 %109 to i64
  %111 = getelementptr inbounds [300 x i32], [300 x i32]* %1, i64 0, i64 %110
  %112 = load i32, i32* %111, align 4
  %113 = icmp ne i32 %108, %112
  br i1 %113, label %114, label %124

114:                                              ; preds = %107
  %115 = load i32, i32* %5, align 4
  %116 = add nsw i32 %115, 1
  store i32 %116, i32* %5, align 4
  %117 = load i32, i32* %4, align 4
  %118 = sext i32 %117 to i64
  %119 = getelementptr inbounds [300 x i32], [300 x i32]* %1, i64 0, i64 %118
  %120 = load i32, i32* %119, align 4
  %121 = load i32, i32* %5, align 4
  %122 = sext i32 %121 to i64
  %123 = getelementptr inbounds [300 x i32], [300 x i32]* %2, i64 0, i64 %122
  store i32 %120, i32* %123, align 4
  br label %124

124:                                              ; preds = %114, %107, %92
  br label %125

125:                                              ; preds = %124
  %126 = load i32, i32* %4, align 4
  %127 = add nsw i32 %126, 1
  store i32 %127, i32* %4, align 4
  br label %88

128:                                              ; preds = %88
  %129 = getelementptr inbounds [300 x i32], [300 x i32]* %2, i64 0, i64 0
  %130 = load i32, i32* %129, align 16
  %131 = call i32 (i8*, ...) @printf(i8* getelementptr inbounds ([3 x i8], [3 x i8]* @.str, i64 0, i64 0), i32 %130)
  store i32 1, i32* %4, align 4
  br label %132

132:                                              ; preds = %142, %128
  %133 = load i32, i32* %4, align 4
  %134 = load i32, i32* %5, align 4
  %135 = icmp sle i32 %133, %134
  br i1 %135, label %136, label %145

136:                                              ; preds = %132
  %137 = load i32, i32* %5, align 4
  %138 = sext i32 %137 to i64
  %139 = getelementptr inbounds [300 x i32], [300 x i32]* %2, i64 0, i64 %138
  %140 = load i32, i32* %139, align 4
  %141 = call i32 (i8*, ...) @printf(i8* getelementptr inbounds ([4 x i8], [4 x i8]* @.str.1, i64 0, i64 0), i32 %140)
  br label %142

142:                                              ; preds = %136
  %143 = load i32, i32* %4, align 4
  %144 = add nsw i32 %143, 1
  store i32 %144, i32* %4, align 4
  br label %132

145:                                              ; preds = %132
  ret void
}

declare dso_local i32 @__isoc99_scanf(i8*, ...) #1

; Function Attrs: nounwind readnone speculatable willreturn
declare double @llvm.fabs.f64(double) #2

declare dso_local i32 @printf(i8*, ...) #1


!llvm.module.flags = !{!0}
!llvm.ident = !{!1}

!0 = !{i32 1, !"wchar_size", i32 4}
!1 = !{!"clang version 10.0.0-4ubuntu1 "}
